target datalayout = "e-m:e-p270:32:32-p271:32:32-p272:64:64-i64:64-i128:128-f80:128-n8:16:32:64-S128"
target triple = "x86_64-pc-linux-gnu"

%struct.ItemPointerData = type { %struct.BlockIdData, i16 }
%struct.BlockIdData = type { i16, i16 }
%struct.IndexScanDescData = type { ptr, ptr, ptr, i32, i32, ptr, ptr, i8, i8, i8, i8, i8, ptr, ptr, ptr, ptr, ptr, %struct.ItemPointerData, i8, ptr, i8, ptr, ptr, i8, ptr }
%struct.BTScanOpaqueData = type { i8, i32, ptr, i32, i8, i8, i8, ptr, ptr, ptr, ptr, i32, ptr, ptr, i32, %struct.BTScanPosData, %struct.BTScanPosData }
%struct.BTScanPosData = type { i32, i32, i32, i32, i64, i32, i32, i8, i8, i32, i32, i32, [1358 x %struct.BTScanPosItem] }
%struct.BTScanPosItem = type { %struct.ItemPointerData, i16, i16 }

; Function Attrs: inlinehint nounwind uwtable
define internal zeroext i1 @BufferIsValid(i32 noundef %0) #3 {
  %2 = alloca i32, align 4
  store i32 %0, ptr %2, align 4
  %3 = load i32, ptr %2, align 4
  %4 = icmp ne i32 %3, 0
  ret i1 %4
}

; Function Attrs: nounwind uwtable
define internal zeroext i1 @_bt_steppage(ptr noundef %0, i32 noundef %1) #0 {
  %3 = alloca ptr, align 8
  %4 = alloca i32, align 4
  %5 = alloca ptr, align 8
  %6 = alloca i32, align 4
  %7 = alloca i32, align 4
  store ptr %0, ptr %3, align 8
  store i32 %1, ptr %4, align 4
  call void @llvm.lifetime.start.p0(i64 8, ptr %5) #7
  %8 = load ptr, ptr %3, align 8
  %9 = getelementptr inbounds nuw %struct.IndexScanDescData, ptr %8, i32 0, i32 12
  %10 = load ptr, ptr %9, align 8
  store ptr %10, ptr %5, align 8
  call void @llvm.lifetime.start.p0(i64 4, ptr %6) #7
  call void @llvm.lifetime.start.p0(i64 4, ptr %7) #7
  %11 = load ptr, ptr %5, align 8
  %12 = getelementptr inbounds nuw %struct.BTScanOpaqueData, ptr %11, i32 0, i32 11
  %13 = load i32, ptr %12, align 8
  %14 = icmp sgt i32 %13, 0
  br i1 %14, label %15, label %17

15:                                               ; preds = %2
  %16 = load ptr, ptr %3, align 8
  call void @_bt_killitems(ptr noundef %16)
  br label %17

17:                                               ; preds = %15, %2
  %18 = load ptr, ptr %5, align 8
  %19 = getelementptr inbounds nuw %struct.BTScanOpaqueData, ptr %18, i32 0, i32 14
  %20 = load i32, ptr %19, align 8
  %21 = icmp sge i32 %20, 0
  br i1 %21, label %22, label %90

22:                                               ; preds = %17
  %23 = load ptr, ptr %5, align 8
  %24 = getelementptr inbounds nuw %struct.BTScanOpaqueData, ptr %23, i32 0, i32 15
  %25 = getelementptr inbounds nuw %struct.BTScanPosData, ptr %24, i32 0, i32 0
  %26 = load i32, ptr %25, align 8
  %27 = call zeroext i1 @BufferIsValid(i32 noundef %26)
  br i1 %27, label %28, label %33

28:                                               ; preds = %22
  %29 = load ptr, ptr %5, align 8
  %30 = getelementptr inbounds nuw %struct.BTScanOpaqueData, ptr %29, i32 0, i32 15
  %31 = getelementptr inbounds nuw %struct.BTScanPosData, ptr %30, i32 0, i32 0
  %32 = load i32, ptr %31, align 8
  call void @IncrBufferRefCount(i32 noundef %32)
  br label %33

33:                                               ; preds = %28, %22
  %34 = load ptr, ptr %5, align 8
  %35 = getelementptr inbounds nuw %struct.BTScanOpaqueData, ptr %34, i32 0, i32 16
  %36 = load ptr, ptr %5, align 8
  %37 = getelementptr inbounds nuw %struct.BTScanOpaqueData, ptr %36, i32 0, i32 15
  %38 = load ptr, ptr %5, align 8
  %39 = getelementptr inbounds nuw %struct.BTScanOpaqueData, ptr %38, i32 0, i32 15
  %40 = getelementptr inbounds nuw %struct.BTScanPosData, ptr %39, i32 0, i32 10
  %41 = load i32, ptr %40, align 8
  %42 = sext i32 %41 to i64
  %43 = mul i64 %42, 10
  %44 = add i64 58, %43
  call void @llvm.memcpy.p0.p0.i64(ptr align 8 %35, ptr align 8 %37, i64 %44, i1 false)
  %45 = load ptr, ptr %5, align 8
  %46 = getelementptr inbounds nuw %struct.BTScanOpaqueData, ptr %45, i32 0, i32 13
  %47 = load ptr, ptr %46, align 8
  %48 = icmp ne ptr %47, null
  br i1 %48, label %49, label %61

49:                                               ; preds = %33
  %50 = load ptr, ptr %5, align 8
  %51 = getelementptr inbounds nuw %struct.BTScanOpaqueData, ptr %50, i32 0, i32 13
  %52 = load ptr, ptr %51, align 8
  %53 = load ptr, ptr %5, align 8
  %54 = getelementptr inbounds nuw %struct.BTScanOpaqueData, ptr %53, i32 0, i32 12
  %55 = load ptr, ptr %54, align 8
  %56 = load ptr, ptr %5, align 8
  %57 = getelementptr inbounds nuw %struct.BTScanOpaqueData, ptr %56, i32 0, i32 15
  %58 = getelementptr inbounds nuw %struct.BTScanPosData, ptr %57, i32 0, i32 6
  %59 = load i32, ptr %58, align 4
  %60 = sext i32 %59 to i64
  call void @llvm.memcpy.p0.p0.i64(ptr align 1 %52, ptr align 1 %55, i64 %60, i1 false)
  br label %61

61:                                               ; preds = %49, %33
  %62 = load ptr, ptr %5, align 8
  %63 = getelementptr inbounds nuw %struct.BTScanOpaqueData, ptr %62, i32 0, i32 14
  %64 = load i32, ptr %63, align 8
  %65 = load ptr, ptr %5, align 8
  %66 = getelementptr inbounds nuw %struct.BTScanOpaqueData, ptr %65, i32 0, i32 16
  %67 = getelementptr inbounds nuw %struct.BTScanPosData, ptr %66, i32 0, i32 11
  store i32 %64, ptr %67, align 4
  %68 = load ptr, ptr %5, align 8
  %69 = getelementptr inbounds nuw %struct.BTScanOpaqueData, ptr %68, i32 0, i32 14
  store i32 -1, ptr %69, align 8
  %70 = load ptr, ptr %5, align 8
  %71 = getelementptr inbounds nuw %struct.BTScanOpaqueData, ptr %70, i32 0, i32 4
  %72 = load i8, ptr %71, align 4, !range !4, !noundef !5
  %73 = trunc i8 %72 to i1
  br i1 %73, label %74, label %89

74:                                               ; preds = %61
  %75 = load ptr, ptr %5, align 8
  %76 = getelementptr inbounds nuw %struct.BTScanOpaqueData, ptr %75, i32 0, i32 15
  %77 = getelementptr inbounds nuw %struct.BTScanPosData, ptr %76, i32 0, i32 5
  %78 = load i32, ptr %77, align 8
  %79 = icmp eq i32 %78, 1
  br i1 %79, label %80, label %84

80:                                               ; preds = %74
  %81 = load ptr, ptr %5, align 8
  %82 = getelementptr inbounds nuw %struct.BTScanOpaqueData, ptr %81, i32 0, i32 16
  %83 = getelementptr inbounds nuw %struct.BTScanPosData, ptr %82, i32 0, i32 8
  store i8 1, ptr %83, align 1
  br label %88

84:                                               ; preds = %74
  %85 = load ptr, ptr %5, align 8
  %86 = getelementptr inbounds nuw %struct.BTScanOpaqueData, ptr %85, i32 0, i32 16
  %87 = getelementptr inbounds nuw %struct.BTScanPosData, ptr %86, i32 0, i32 7
  store i8 1, ptr %87, align 8
  br label %88

88:                                               ; preds = %84, %80
  br label %89

89:                                               ; preds = %88, %61
  br label %90

90:                                               ; preds = %89, %17
  br label %91

91:                                               ; preds = %90
  %92 = load ptr, ptr %5, align 8
  %93 = getelementptr inbounds nuw %struct.BTScanOpaqueData, ptr %92, i32 0, i32 15
  %94 = getelementptr inbounds nuw %struct.BTScanPosData, ptr %93, i32 0, i32 0
  %95 = load i32, ptr %94, align 8
  %96 = call zeroext i1 @BufferIsValid(i32 noundef %95)
  br i1 %96, label %97, label %108

97:                                               ; preds = %91
  br label %98

98:                                               ; preds = %97
  %99 = load ptr, ptr %5, align 8
  %100 = getelementptr inbounds nuw %struct.BTScanOpaqueData, ptr %99, i32 0, i32 15
  %101 = getelementptr inbounds nuw %struct.BTScanPosData, ptr %100, i32 0, i32 0
  %102 = load i32, ptr %101, align 8
  call void @ReleaseBuffer(i32 noundef %102)
  %103 = load ptr, ptr %5, align 8
  %104 = getelementptr inbounds nuw %struct.BTScanOpaqueData, ptr %103, i32 0, i32 15
  %105 = getelementptr inbounds nuw %struct.BTScanPosData, ptr %104, i32 0, i32 0
  store i32 0, ptr %105, align 8
  br label %106

106:                                              ; preds = %98
  br label %107

107:                                              ; preds = %106
  br label %108

108:                                              ; preds = %107, %91
  br label %109

109:                                              ; preds = %108
  br label %110

110:                                              ; preds = %109
  %111 = load i32, ptr %4, align 4
  %112 = icmp eq i32 %111, 1
  br i1 %112, label %113, label %118

113:                                              ; preds = %110
  %114 = load ptr, ptr %5, align 8
  %115 = getelementptr inbounds nuw %struct.BTScanOpaqueData, ptr %114, i32 0, i32 15
  %116 = getelementptr inbounds nuw %struct.BTScanPosData, ptr %115, i32 0, i32 3
  %117 = load i32, ptr %116, align 4
  store i32 %117, ptr %6, align 4
  br label %123

118:                                              ; preds = %110
  %119 = load ptr, ptr %5, align 8
  %120 = getelementptr inbounds nuw %struct.BTScanOpaqueData, ptr %119, i32 0, i32 15
  %121 = getelementptr inbounds nuw %struct.BTScanPosData, ptr %120, i32 0, i32 2
  %122 = load i32, ptr %121, align 8
  store i32 %122, ptr %6, align 4
  br label %123

123:                                              ; preds = %118, %113
  %124 = load ptr, ptr %5, align 8
  %125 = getelementptr inbounds nuw %struct.BTScanOpaqueData, ptr %124, i32 0, i32 15
  %126 = getelementptr inbounds nuw %struct.BTScanPosData, ptr %125, i32 0, i32 1
  %127 = load i32, ptr %126, align 4
  store i32 %127, ptr %7, align 4
  %128 = load ptr, ptr %5, align 8
  %129 = getelementptr inbounds nuw %struct.BTScanOpaqueData, ptr %128, i32 0, i32 15
  %130 = getelementptr inbounds nuw %struct.BTScanPosData, ptr %129, i32 0, i32 5
  %131 = load i32, ptr %130, align 8
  %132 = load i32, ptr %4, align 4
  %133 = icmp ne i32 %131, %132
  br i1 %133, label %134, label %137

134:                                              ; preds = %123
  %135 = load ptr, ptr %5, align 8
  %136 = getelementptr inbounds nuw %struct.BTScanOpaqueData, ptr %135, i32 0, i32 4
  store i8 0, ptr %136, align 4
  br label %137

137:                                              ; preds = %134, %123
  %138 = load ptr, ptr %3, align 8
  %139 = load i32, ptr %6, align 4
  %140 = load i32, ptr %7, align 4
  %141 = load i32, ptr %4, align 4
  %142 = call zeroext i1 @_bt_readnextpage(ptr noundef %138, i32 noundef %139, i32 noundef %140, i32 noundef %141, i1 noundef zeroext false)
  call void @llvm.lifetime.end.p0(i64 4, ptr %7) #7
  call void @llvm.lifetime.end.p0(i64 4, ptr %6) #7
  call void @llvm.lifetime.end.p0(i64 8, ptr %5) #7
  ret i1 %142
}