; Function Attrs: nounwind uwtable
define internal fastcc noundef zeroext i1 @_bt_steppage(ptr noundef %0, i32 noundef %1) unnamed_addr #0 {
  %3 = getelementptr inbounds nuw i8, ptr %0, i64 56
  %4 = load ptr, ptr %3, align 8
  %5 = getelementptr inbounds nuw i8, ptr %4, i64 56
  %6 = load i32, ptr %5, align 8
  %7 = icmp sgt i32 %6, 0
  br i1 %7, label %8, label %9

8:                                                ; preds = %2
  tail call void @_bt_killitems(ptr noundef nonnull %0) #7
  br label %9

9:                                                ; preds = %8, %2
  %10 = getelementptr inbounds nuw i8, ptr %4, i64 80
  %11 = load i32, ptr %10, align 8
  %12 = icmp sgt i32 %11, -1
  br i1 %12, label %13, label %46

13:                                               ; preds = %9
  %14 = getelementptr inbounds nuw i8, ptr %4, i64 88
  %15 = load i32, ptr %14, align 8
  %.not35 = icmp eq i32 %15, 0
  br i1 %.not35, label %17, label %16

16:                                               ; preds = %13
  tail call void @IncrBufferRefCount(i32 noundef %15) #7
  br label %17

17:                                               ; preds = %16, %13
  %18 = getelementptr inbounds nuw i8, ptr %4, i64 13720
  %19 = getelementptr inbounds nuw i8, ptr %4, i64 128
  %20 = load i32, ptr %19, align 8
  %21 = sext i32 %20 to i64
  %22 = mul nsw i64 %21, 10
  %23 = add nsw i64 %22, 58
  tail call void @llvm.memcpy.p0.p0.i64(ptr nonnull align 8 %18, ptr nonnull align 8 %14, i64 %23, i1 false)
  %24 = getelementptr inbounds nuw i8, ptr %4, i64 72
  %25 = load ptr, ptr %24, align 8
  %.not = icmp eq ptr %25, null
  br i1 %.not, label %32, label %26

26:                                               ; preds = %17
  %27 = getelementptr inbounds nuw i8, ptr %4, i64 64
  %28 = load ptr, ptr %27, align 8
  %29 = getelementptr inbounds nuw i8, ptr %4, i64 116
  %30 = load i32, ptr %29, align 4
  %31 = sext i32 %30 to i64
  tail call void @llvm.memcpy.p0.p0.i64(ptr nonnull align 1 %25, ptr align 1 %28, i64 %31, i1 false)
  br label %32

32:                                               ; preds = %26, %17
  %33 = load i32, ptr %10, align 8
  %34 = getelementptr inbounds nuw i8, ptr %4, i64 13764
  store i32 %33, ptr %34, align 4
  store i32 -1, ptr %10, align 8
  %35 = getelementptr inbounds nuw i8, ptr %4, i64 20
  %36 = load i8, ptr %35, align 4, !range !5, !noundef !6
  %37 = trunc nuw i8 %36 to i1
  br i1 %37, label %38, label %46

38:                                               ; preds = %32
  %39 = getelementptr inbounds nuw i8, ptr %4, i64 112
  %40 = load i32, ptr %39, align 8
  %41 = icmp eq i32 %40, 1
  br i1 %41, label %42, label %44

42:                                               ; preds = %38
  %43 = getelementptr inbounds nuw i8, ptr %4, i64 13753
  store i8 1, ptr %43, align 1
  br label %46

44:                                               ; preds = %38
  %45 = getelementptr inbounds nuw i8, ptr %4, i64 13752
  store i8 1, ptr %45, align 8
  br label %46

46:                                               ; preds = %9, %42, %44, %32
  %47 = getelementptr inbounds nuw i8, ptr %4, i64 88
  %48 = load i32, ptr %47, align 8
  %.not36 = icmp eq i32 %48, 0
  br i1 %.not36, label %50, label %49

49:                                               ; preds = %46
  tail call void @ReleaseBuffer(i32 noundef %48) #7
  store i32 0, ptr %47, align 8
  br label %50

50:                                               ; preds = %49, %46
  %51 = icmp eq i32 %1, 1
  %.0.in.v = select i1 %51, i64 100, i64 96
  %.0.in = getelementptr inbounds nuw i8, ptr %4, i64 %.0.in.v
  %.0 = load i32, ptr %.0.in, align 4
  %52 = getelementptr inbounds nuw i8, ptr %4, i64 92
  %53 = load i32, ptr %52, align 4
  %54 = getelementptr inbounds nuw i8, ptr %4, i64 112
  %55 = load i32, ptr %54, align 8
  %.not34 = icmp eq i32 %55, %1
  br i1 %.not34, label %58, label %56

56:                                               ; preds = %50
  %57 = getelementptr inbounds nuw i8, ptr %4, i64 20
  store i8 0, ptr %57, align 4
  br label %58

58:                                               ; preds = %56, %50
  %59 = tail call fastcc zeroext i1 @_bt_readnextpage(ptr noundef nonnull %0, i32 noundef %.0, i32 noundef %53, i32 noundef %1, i1 noundef zeroext false)
  ret i1 %59
}